target datalayout = "e-m:e-p270:32:32-p271:32:32-p272:64:64-i64:64-i128:128-f80:128-n8:16:32:64-S128"
target triple = "x86_64-pc-linux-gnu"

%struct.wtap = type { ptr, ptr, i8, i32, i32, ptr, ptr, ptr, i32, ptr, ptr, ptr, ptr, ptr, ptr, ptr, ptr, ptr, ptr, i32, i32, ptr, ptr, ptr, ptr }
%struct.iptrace_t = type { ptr, i32 }

@.str = private unnamed_addr constant [12 x i8] c"iptrace 1.0\00", align 1
@iptrace_1_0_file_type_subtype = internal global i32 -1, align 4
@.str.1 = private unnamed_addr constant [12 x i8] c"iptrace 2.0\00", align 1
@iptrace_2_0_file_type_subtype = internal global i32 -1, align 4

; Function Attrs: null_pointer_is_valid sspstrong uwtable
define hidden i32 @iptrace_open(ptr noundef %0, ptr noundef %1, ptr noundef %2) #0 {
  %4 = alloca i32, align 4
  %5 = alloca ptr, align 8
  %6 = alloca ptr, align 8
  %7 = alloca ptr, align 8
  %8 = alloca [12 x i8], align 1
  %9 = alloca ptr, align 8
  %10 = alloca i32, align 4
  %11 = alloca i64, align 8
  %12 = alloca i64, align 8
  %13 = alloca ptr, align 8
  %14 = alloca ptr, align 8
  store ptr %0, ptr %5, align 8
  store ptr %1, ptr %6, align 8
  store ptr %2, ptr %7, align 8
  call void @llvm.lifetime.start.p0(i64 12, ptr %8) #13
  call void @llvm.lifetime.start.p0(i64 8, ptr %9) #13
  %15 = load ptr, ptr %5, align 8
  %16 = getelementptr inbounds nuw %struct.wtap, ptr %15, i32 0, i32 0
  %17 = load ptr, ptr %16, align 8
  %18 = getelementptr inbounds [12 x i8], ptr %8, i64 0, i64 0
  %19 = load ptr, ptr %6, align 8
  %20 = load ptr, ptr %7, align 8
  %21 = call zeroext i1 @wtap_read_bytes(ptr noundef %17, ptr noundef %18, i32 noundef 11, ptr noundef %19, ptr noundef %20)
  br i1 %21, label %28, label %22

22:                                               ; preds = %3
  %23 = load ptr, ptr %6, align 8
  %24 = load i32, ptr %23, align 4
  %25 = icmp ne i32 %24, -12
  br i1 %25, label %26, label %27

26:                                               ; preds = %22
  store i32 -1, ptr %4, align 4
  store i32 1, ptr %10, align 4
  br label %99

27:                                               ; preds = %22
  store i32 0, ptr %4, align 4
  store i32 1, ptr %10, align 4
  br label %99

28:                                               ; preds = %3
  %29 = getelementptr [12 x i8], ptr %8, i64 0, i64 11
  store i8 0, ptr %29, align 1
  %30 = getelementptr inbounds [12 x i8], ptr %8, i64 0, i64 0
  %31 = call i32 @strcmp(ptr noundef %30, ptr noundef @.str) #14
  %32 = icmp eq i32 %31, 0
  br i1 %32, label %33, label %43

33:                                               ; preds = %28
  %34 = load i32, ptr @iptrace_1_0_file_type_subtype, align 4
  %35 = load ptr, ptr %5, align 8
  %36 = getelementptr inbounds nuw %struct.wtap, ptr %35, i32 0, i32 3
  store i32 %34, ptr %36, align 4
  %37 = load ptr, ptr %5, align 8
  %38 = getelementptr inbounds nuw %struct.wtap, ptr %37, i32 0, i32 15
  store ptr @iptrace_read_1_0, ptr %38, align 8
  %39 = load ptr, ptr %5, align 8
  %40 = getelementptr inbounds nuw %struct.wtap, ptr %39, i32 0, i32 16
  store ptr @iptrace_seek_read_1_0, ptr %40, align 8
  %41 = load ptr, ptr %5, align 8
  %42 = getelementptr inbounds nuw %struct.wtap, ptr %41, i32 0, i32 20
  store i32 0, ptr %42, align 4
  br label %59

43:                                               ; preds = %28
  %44 = getelementptr inbounds [12 x i8], ptr %8, i64 0, i64 0
  %45 = call i32 @strcmp(ptr noundef %44, ptr noundef @.str.1) #14
  %46 = icmp eq i32 %45, 0
  br i1 %46, label %47, label %57

47:                                               ; preds = %43
  %48 = load i32, ptr @iptrace_2_0_file_type_subtype, align 4
  %49 = load ptr, ptr %5, align 8
  %50 = getelementptr inbounds nuw %struct.wtap, ptr %49, i32 0, i32 3
  store i32 %48, ptr %50, align 4
  %51 = load ptr, ptr %5, align 8
  %52 = getelementptr inbounds nuw %struct.wtap, ptr %51, i32 0, i32 15
  store ptr @iptrace_read_2_0, ptr %52, align 8
  %53 = load ptr, ptr %5, align 8
  %54 = getelementptr inbounds nuw %struct.wtap, ptr %53, i32 0, i32 16
  store ptr @iptrace_seek_read_2_0, ptr %54, align 8
  %55 = load ptr, ptr %5, align 8
  %56 = getelementptr inbounds nuw %struct.wtap, ptr %55, i32 0, i32 20
  store i32 9, ptr %56, align 4
  br label %58

57:                                               ; preds = %43
  store i32 0, ptr %4, align 4
  store i32 1, ptr %10, align 4
  br label %99

58:                                               ; preds = %47
  br label %59

59:                                               ; preds = %58, %33
  %60 = load ptr, ptr %5, align 8
  %61 = getelementptr inbounds nuw %struct.wtap, ptr %60, i32 0, i32 18
  store ptr @iptrace_close, ptr %61, align 8
  call void @llvm.lifetime.start.p0(i64 8, ptr %11) #13
  store i64 1, ptr %11, align 8
  call void @llvm.lifetime.start.p0(i64 8, ptr %12) #13
  store i64 16, ptr %12, align 8
  call void @llvm.lifetime.start.p0(i64 8, ptr %13) #13
  %62 = load i64, ptr %12, align 8
  %63 = icmp eq i64 %62, 1
  br i1 %63, label %64, label %67

64:                                               ; preds = %59
  %65 = load i64, ptr %11, align 8
  %66 = call noalias ptr @g_malloc(i64 noundef %65) #15
  store ptr %66, ptr %13, align 8
  br label %88

67:                                               ; preds = %59
  %68 = load i64, ptr %11, align 8
  %69 = call i1 @llvm.is.constant.i64(i64 %68)
  br i1 %69, label %70, label %83

70:                                               ; preds = %67
  %71 = load i64, ptr %12, align 8
  %72 = icmp eq i64 %71, 0
  br i1 %72, label %78, label %73

73:                                               ; preds = %70
  %74 = load i64, ptr %11, align 8
  %75 = load i64, ptr %12, align 8
  %76 = udiv i64 -1, %75
  %77 = icmp ule i64 %74, %76
  br i1 %77, label %78, label %83

78:                                               ; preds = %73, %70
  %79 = load i64, ptr %11, align 8
  %80 = load i64, ptr %12, align 8
  %81 = mul i64 %79, %80
  %82 = call noalias ptr @g_malloc(i64 noundef %81) #15
  store ptr %82, ptr %13, align 8
  br label %87

83:                                               ; preds = %73, %67
  %84 = load i64, ptr %11, align 8
  %85 = load i64, ptr %12, align 8
  %86 = call noalias ptr @g_malloc_n(i64 noundef %84, i64 noundef %85) #16
  store ptr %86, ptr %13, align 8
  br label %87

87:                                               ; preds = %83, %78
  br label %88

88:                                               ; preds = %87, %64
  %89 = load ptr, ptr %13, align 8
  store ptr %89, ptr %14, align 8
  call void @llvm.lifetime.end.p0(i64 8, ptr %13) #13
  call void @llvm.lifetime.end.p0(i64 8, ptr %12) #13
  call void @llvm.lifetime.end.p0(i64 8, ptr %11) #13
  %90 = load ptr, ptr %14, align 8
  store ptr %90, ptr %9, align 8
  %91 = call ptr @g_hash_table_new(ptr noundef @if_info_hash, ptr noundef @if_info_equal)
  %92 = load ptr, ptr %9, align 8
  %93 = getelementptr inbounds nuw %struct.iptrace_t, ptr %92, i32 0, i32 0
  store ptr %91, ptr %93, align 8
  %94 = load ptr, ptr %9, align 8
  %95 = getelementptr inbounds nuw %struct.iptrace_t, ptr %94, i32 0, i32 1
  store i32 0, ptr %95, align 8
  %96 = load ptr, ptr %9, align 8
  %97 = load ptr, ptr %5, align 8
  %98 = getelementptr inbounds nuw %struct.wtap, ptr %97, i32 0, i32 13
  store ptr %96, ptr %98, align 8
  store i32 1, ptr %4, align 4
  store i32 1, ptr %10, align 4
  br label %99

99:                                               ; preds = %88, %57, %27, %26
  call void @llvm.lifetime.end.p0(i64 8, ptr %9) #13
  call void @llvm.lifetime.end.p0(i64 12, ptr %8) #13
  %100 = load i32, ptr %4, align 4
  ret i32 %100
}