; Function Attrs: null_pointer_is_valid sspstrong uwtable
define hidden range(i32 -1, 2) i32 @iptrace_open(ptr noundef captures(none) %0, ptr noundef %1, ptr noundef %2) local_unnamed_addr #0 {
  %4 = alloca [12 x i8], align 1
  call void @llvm.lifetime.start.p0(i64 12, ptr nonnull %4) #9
  %5 = load ptr, ptr %0, align 8
  %6 = call zeroext i1 @wtap_read_bytes(ptr noundef %5, ptr noundef nonnull %4, i32 noundef 11, ptr noundef %1, ptr noundef %2)
  br i1 %6, label %9, label %7

7:                                                ; preds = %3
  %8 = load i32, ptr %1, align 4
  %.not = icmp ne i32 %8, -12
  %. = sext i1 %.not to i32
  br label %25

9:                                                ; preds = %3
  %10 = getelementptr inbounds nuw i8, ptr %4, i64 11
  store i8 0, ptr %10, align 1
  %bcmp = call i32 @bcmp(ptr noundef nonnull dereferenceable(12) %4, ptr noundef nonnull dereferenceable(12) @.str, i64 12)
  %11 = icmp eq i32 %bcmp, 0
  br i1 %11, label %14, label %12

12:                                               ; preds = %9
  %bcmp30 = call i32 @bcmp(ptr noundef nonnull dereferenceable(12) %4, ptr noundef nonnull dereferenceable(12) @.str.1, i64 12)
  %13 = icmp eq i32 %bcmp30, 0
  br i1 %13, label %14, label %25

14:                                               ; preds = %12, %9
  %iptrace_2_0_file_type_subtype.sink = phi ptr [ @iptrace_1_0_file_type_subtype, %9 ], [ @iptrace_2_0_file_type_subtype, %12 ]
  %iptrace_read_2_0.sink = phi ptr [ @iptrace_read_1_0, %9 ], [ @iptrace_read_2_0, %12 ]
  %iptrace_seek_read_2_0.sink = phi ptr [ @iptrace_seek_read_1_0, %9 ], [ @iptrace_seek_read_2_0, %12 ]
  %.sink = phi i32 [ 0, %9 ], [ 9, %12 ]
  %15 = load i32, ptr %iptrace_2_0_file_type_subtype.sink, align 4
  %16 = getelementptr inbounds nuw i8, ptr %0, i64 20
  store i32 %15, ptr %16, align 4
  %17 = getelementptr inbounds nuw i8, ptr %0, i64 112
  store ptr %iptrace_read_2_0.sink, ptr %17, align 8
  %18 = getelementptr inbounds nuw i8, ptr %0, i64 120
  store ptr %iptrace_seek_read_2_0.sink, ptr %18, align 8
  %19 = getelementptr inbounds nuw i8, ptr %0, i64 148
  store i32 %.sink, ptr %19, align 4
  %20 = getelementptr inbounds nuw i8, ptr %0, i64 136
  store ptr @iptrace_close, ptr %20, align 8
  %21 = call noalias dereferenceable_or_null(16) ptr @g_malloc(i64 noundef 16) #10
  %22 = call ptr @g_hash_table_new(ptr noundef nonnull @if_info_hash, ptr noundef nonnull @if_info_equal)
  store ptr %22, ptr %21, align 8
  %23 = getelementptr inbounds nuw i8, ptr %21, i64 8
  store i32 0, ptr %23, align 8
  %24 = getelementptr inbounds nuw i8, ptr %0, i64 96
  store ptr %21, ptr %24, align 8
  br label %25

25:                                               ; preds = %12, %7, %14
  %.0 = phi i32 [ 1, %14 ], [ %., %7 ], [ 0, %12 ]
  call void @llvm.lifetime.end.p0(i64 12, ptr nonnull %4) #9
  ret i32 %.0
}